target datalayout = "e-m:e-p270:32:32-p271:32:32-p272:64:64-i64:64-i128:128-f80:128-n8:16:32:64-S128"
target triple = "x86_64-pc-linux-gnu"

@.str.4 = private unnamed_addr constant [2 x i8] c"\0A\00", align 1
@.str.5 = private unnamed_addr constant [55 x i8] c"    proc_arst [-global_arst [!]<netname>] [selection]\0A\00", align 1
@.str.6 = private unnamed_addr constant [77 x i8] c"This pass identifies asynchronous resets in the processes and converts them\0A\00", align 1
@.str.7 = private unnamed_addr constant [72 x i8] c"to a different internal representation that is suitable for generating\0A\00", align 1
@.str.8 = private unnamed_addr constant [43 x i8] c"flip-flop cells with asynchronous resets.\0A\00", align 1
@.str.9 = private unnamed_addr constant [31 x i8] c"    -global_arst [!]<netname>\0A\00", align 1
@.str.10 = private unnamed_addr constant [79 x i8] c"        In modules that have a net with the given name, use this net as async\0A\00", align 1
@.str.11 = private unnamed_addr constant [75 x i8] c"        reset for registers that have been assign initial values in their\0A\00", align 1
@.str.12 = private unnamed_addr constant [80 x i8] c"        declaration ('reg foobar = constant_value;'). Use the '!' modifier for\0A\00", align 1
@.str.13 = private unnamed_addr constant [79 x i8] c"        active low reset signals. Note: the frontend stores the default value\0A\00", align 1
@.str.14 = private unnamed_addr constant [45 x i8] c"        in the 'init' attribute on the net.\0A\00", align 1

; Function Attrs: mustprogress uwtable
define internal void @_ZN12_GLOBAL__N_112ProcArstPass4helpEv(ptr noundef nonnull align 8 dereferenceable(104) %0) unnamed_addr #4 align 2 {
  %2 = alloca ptr, align 8
  store ptr %0, ptr %2, align 8, !tbaa !6
  call void (ptr, ...) @_ZN5Yosys3logEPKcz(ptr noundef @.str.4)
  call void (ptr, ...) @_ZN5Yosys3logEPKcz(ptr noundef @.str.5)
  call void (ptr, ...) @_ZN5Yosys3logEPKcz(ptr noundef @.str.4)
  call void (ptr, ...) @_ZN5Yosys3logEPKcz(ptr noundef @.str.6)
  call void (ptr, ...) @_ZN5Yosys3logEPKcz(ptr noundef @.str.7)
  call void (ptr, ...) @_ZN5Yosys3logEPKcz(ptr noundef @.str.8)
  call void (ptr, ...) @_ZN5Yosys3logEPKcz(ptr noundef @.str.4)
  call void (ptr, ...) @_ZN5Yosys3logEPKcz(ptr noundef @.str.9)
  call void (ptr, ...) @_ZN5Yosys3logEPKcz(ptr noundef @.str.10)
  call void (ptr, ...) @_ZN5Yosys3logEPKcz(ptr noundef @.str.11)
  call void (ptr, ...) @_ZN5Yosys3logEPKcz(ptr noundef @.str.12)
  call void (ptr, ...) @_ZN5Yosys3logEPKcz(ptr noundef @.str.13)
  call void (ptr, ...) @_ZN5Yosys3logEPKcz(ptr noundef @.str.14)
  call void (ptr, ...) @_ZN5Yosys3logEPKcz(ptr noundef @.str.4)
  ret void
}